target datalayout = "e-m:e-p270:32:32-p271:32:32-p272:64:64-i64:64-i128:128-f80:128-n8:16:32:64-S128"
target triple = "x86_64-pc-linux-gnu"

%struct._zend_executor_globals = type { %struct._zval_struct, %struct._zval_struct, [32 x ptr], ptr, ptr, %struct._zend_array, %struct._zend_array, ptr, i32, i8, %struct._zval_struct, i32, ptr, ptr, ptr, ptr, ptr, ptr, i64, ptr, ptr, i32, ptr, i32, i64, i32, i32, i32, i8, i8, %struct.zend_atomic_bool_s, %struct.zend_atomic_bool_s, ptr, i64, ptr, ptr, %struct._zend_array, %struct._zend_array, i32, i8, %struct._zval_struct, %struct._zval_struct, %struct._zend_stack, %struct._zend_stack, %struct._zend_stack, ptr, i32, i32, i64, ptr, ptr, ptr, %struct._zend_objects_store, %struct._zend_lazy_objects_store, ptr, ptr, ptr, [3 x %struct._zend_op], ptr, i8, i8, i64, i32, i32, ptr, [16 x %struct._HashTableIterator], ptr, %union._zend_function, %struct._zend_op, %struct._zend_array, i64, %struct.zend_get_gc_buffer, ptr, ptr, ptr, i64, i8, i32, ptr, ptr, i64, %struct._zend_call_stack, i64, i64, %struct._zend_strtod_state, [6 x ptr] }
%struct.zend_atomic_bool_s = type { i8 }
%struct._zval_struct = type { %union._zend_value, %union.anon, %union.anon.2 }
%union._zend_value = type { i64 }
%union.anon = type { i32 }
%union.anon.2 = type { i32 }
%struct._zend_stack = type { i32, i32, i32, ptr }
%struct._zend_objects_store = type { ptr, i32, i32, i32 }
%struct._zend_lazy_objects_store = type { %struct._zend_array }
%struct._HashTableIterator = type { ptr, i32, i32 }
%union._zend_function = type { %struct._zend_op_array }
%struct._zend_op_array = type { i8, [3 x i8], i32, ptr, ptr, ptr, i32, i32, ptr, ptr, ptr, ptr, i32, ptr, i32, i32, i32, ptr, ptr, ptr, ptr, ptr, i32, i32, ptr, ptr, ptr, i32, i32, i32, i32, ptr, ptr, [6 x ptr] }
%struct._zend_op = type { ptr, %union._znode_op, %union._znode_op, %union._znode_op, i32, i32, i8, i8, i8, i8 }
%union._znode_op = type { i32 }
%struct._zend_array = type { %struct._zend_refcounted_h, %union.anon.4, i32, %union.anon.6, i32, i32, i32, i32, i64, ptr }
%struct._zend_refcounted_h = type { i32, %union.anon.3 }
%union.anon.3 = type { i32 }
%union.anon.4 = type { i32 }
%union.anon.6 = type { ptr }
%struct.zend_get_gc_buffer = type { ptr, ptr, ptr }
%struct._zend_call_stack = type { ptr, i64 }
%struct._zend_strtod_state = type { [8 x ptr], ptr, ptr }
%struct._zend_fiber_context = type { ptr, ptr, ptr, ptr, ptr, i32, ptr, [6 x ptr] }
%struct._zend_fiber_transfer = type { ptr, %struct._zval_struct, i8 }
%struct._zend_fiber = type { %struct._zend_object, i8, %struct._zend_fiber_context, ptr, ptr, %struct._zend_fcall_info, %struct._zend_fcall_info_cache, ptr, ptr, ptr, %struct._zval_struct }
%struct._zend_object = type { %struct._zend_refcounted_h, i32, i32, ptr, ptr, ptr, [1 x %struct._zval_struct] }
%struct._zend_fcall_info = type { i64, %struct._zval_struct, ptr, ptr, ptr, i32, ptr }
%struct._zend_fcall_info_cache = type { ptr, ptr, ptr, ptr, ptr }
%struct._zend_execute_data = type { ptr, ptr, ptr, ptr, %struct._zval_struct, ptr, ptr, ptr, ptr }
%struct._zend_refcounted = type { %struct._zend_refcounted_h }
%struct.anon.7 = type { i8, [3 x i8], i32, ptr, ptr, ptr, i32, i32, ptr, ptr, ptr, ptr, i32, ptr }

@executor_globals = external global %struct._zend_executor_globals, align 8
@.str.25 = private unnamed_addr constant [99 x i8] c"/home/dtcxzyw/WorkSpace/Projects/compilers/llvm-opt-benchmark/bench/php/php-src/Zend/zend_fibers.c\00", align 1

; Function Attrs: alwaysinline nounwind uwtable
define internal i32 @zend_gc_addref(ptr noundef %0) #6 {
  %2 = alloca ptr, align 8
  store ptr %0, ptr %2, align 8, !tbaa !160
  br label %3

3:                                                ; preds = %1
  br label %4

4:                                                ; preds = %3
  %5 = load ptr, ptr %2, align 8, !tbaa !160
  %6 = getelementptr inbounds nuw %struct._zend_refcounted_h, ptr %5, i32 0, i32 0
  %7 = load i32, ptr %6, align 4, !tbaa !162
  %8 = add i32 %7, 1
  store i32 %8, ptr %6, align 4, !tbaa !162
  ret i32 %8
}

; Function Attrs: alwaysinline nounwind uwtable
define internal void @zend_fiber_switch_to(ptr dead_on_unwind noalias writable sret(%struct._zend_fiber_transfer) align 8 %0, ptr noundef %1, ptr noundef %2, i1 noundef zeroext %3) #6 {
  %5 = alloca ptr, align 8
  %6 = alloca ptr, align 8
  %7 = alloca i8, align 1
  %8 = alloca ptr, align 8
  %9 = alloca ptr, align 8
  %10 = alloca ptr, align 8
  %11 = alloca i32, align 4
  store ptr %1, ptr %5, align 8, !tbaa !49
  store ptr %2, ptr %6, align 8, !tbaa !94
  %12 = zext i1 %3 to i8
  store i8 %12, ptr %7, align 1, !tbaa !124
  %13 = getelementptr inbounds nuw %struct._zend_fiber_transfer, ptr %0, i32 0, i32 0
  %14 = load ptr, ptr %5, align 8, !tbaa !49
  store ptr %14, ptr %13, align 8, !tbaa !62
  %15 = getelementptr inbounds nuw %struct._zend_fiber_transfer, ptr %0, i32 0, i32 1
  call void @llvm.memset.p0.i64(ptr align 8 %15, i8 0, i64 16, i1 false)
  %16 = getelementptr inbounds nuw %struct._zend_fiber_transfer, ptr %0, i32 0, i32 2
  %17 = load i8, ptr %7, align 1, !tbaa !124, !range !125, !noundef !126
  %18 = trunc i8 %17 to i1
  %19 = select i1 %18, i32 1, i32 0
  %20 = trunc i32 %19 to i8
  store i8 %20, ptr %16, align 8, !tbaa !105
  %21 = getelementptr i8, ptr %0, i64 25
  call void @llvm.memset.p0.i64(ptr align 1 %21, i8 0, i64 7, i1 false)
  %22 = load ptr, ptr %6, align 8, !tbaa !94
  %23 = icmp ne ptr %22, null
  br i1 %23, label %24, label %52

24:                                               ; preds = %4
  br label %25

25:                                               ; preds = %24
  call void @llvm.lifetime.start.p0(i64 8, ptr %8) #18
  %26 = getelementptr inbounds nuw %struct._zend_fiber_transfer, ptr %0, i32 0, i32 1
  store ptr %26, ptr %8, align 8, !tbaa !94
  call void @llvm.lifetime.start.p0(i64 8, ptr %9) #18
  %27 = load ptr, ptr %6, align 8, !tbaa !94
  store ptr %27, ptr %9, align 8, !tbaa !94
  call void @llvm.lifetime.start.p0(i64 8, ptr %10) #18
  %28 = load ptr, ptr %9, align 8, !tbaa !94
  %29 = getelementptr inbounds nuw %struct._zval_struct, ptr %28, i32 0, i32 0
  %30 = load ptr, ptr %29, align 8, !tbaa !61
  store ptr %30, ptr %10, align 8, !tbaa !128
  call void @llvm.lifetime.start.p0(i64 4, ptr %11) #18
  %31 = load ptr, ptr %9, align 8, !tbaa !94
  %32 = getelementptr inbounds nuw %struct._zval_struct, ptr %31, i32 0, i32 1
  %33 = load i32, ptr %32, align 8, !tbaa !61
  store i32 %33, ptr %11, align 4, !tbaa !48
  br label %34

34:                                               ; preds = %25
  %35 = load ptr, ptr %10, align 8, !tbaa !128
  %36 = load ptr, ptr %8, align 8, !tbaa !94
  %37 = getelementptr inbounds nuw %struct._zval_struct, ptr %36, i32 0, i32 0
  store ptr %35, ptr %37, align 8, !tbaa !61
  %38 = load i32, ptr %11, align 4, !tbaa !48
  %39 = load ptr, ptr %8, align 8, !tbaa !94
  %40 = getelementptr inbounds nuw %struct._zval_struct, ptr %39, i32 0, i32 1
  store i32 %38, ptr %40, align 8, !tbaa !61
  br label %41

41:                                               ; preds = %34
  br label %42

42:                                               ; preds = %41
  %43 = load i32, ptr %11, align 4, !tbaa !48
  %44 = and i32 %43, 65280
  %45 = icmp ne i32 %44, 0
  br i1 %45, label %46, label %50

46:                                               ; preds = %42
  %47 = load ptr, ptr %10, align 8, !tbaa !128
  %48 = getelementptr inbounds nuw %struct._zend_refcounted, ptr %47, i32 0, i32 0
  %49 = call i32 @zend_gc_addref(ptr noundef %48)
  br label %50

50:                                               ; preds = %46, %42
  call void @llvm.lifetime.end.p0(i64 4, ptr %11) #18
  call void @llvm.lifetime.end.p0(i64 8, ptr %10) #18
  call void @llvm.lifetime.end.p0(i64 8, ptr %9) #18
  call void @llvm.lifetime.end.p0(i64 8, ptr %8) #18
  br label %51

51:                                               ; preds = %50
  br label %57

52:                                               ; preds = %4
  br label %53

53:                                               ; preds = %52
  %54 = getelementptr inbounds nuw %struct._zend_fiber_transfer, ptr %0, i32 0, i32 1
  %55 = getelementptr inbounds nuw %struct._zval_struct, ptr %54, i32 0, i32 1
  store i32 1, ptr %55, align 8, !tbaa !61
  br label %56

56:                                               ; preds = %53
  br label %57

57:                                               ; preds = %56, %51
  call void @zend_fiber_switch_context(ptr noundef %0)
  %58 = getelementptr inbounds nuw %struct._zend_fiber_transfer, ptr %0, i32 0, i32 2
  %59 = load i8, ptr %58, align 8, !tbaa !105
  %60 = zext i8 %59 to i32
  %61 = and i32 %60, 2
  %62 = icmp ne i32 %61, 0
  %63 = xor i1 %62, true
  %64 = xor i1 %63, true
  %65 = zext i1 %64 to i32
  %66 = sext i32 %65 to i64
  %67 = call i64 @llvm.expect.i64(i64 %66, i64 0)
  %68 = icmp ne i64 %67, 0
  br i1 %68, label %69, label %70

69:                                               ; preds = %57
  store ptr null, ptr getelementptr inbounds nuw (%struct._zend_executor_globals, ptr @executor_globals, i32 0, i32 74), align 8, !tbaa !87
  call void @_zend_bailout(ptr noundef @.str.25, i32 noundef 669) #24
  unreachable

70:                                               ; preds = %57
  ret void
}

; Function Attrs: alwaysinline nounwind uwtable
define internal void @zend_rethrow_exception(ptr noundef %0) #6 {
  %2 = alloca ptr, align 8
  store ptr %0, ptr %2, align 8, !tbaa !127
  %3 = load ptr, ptr %2, align 8, !tbaa !127
  %4 = getelementptr inbounds nuw %struct._zend_execute_data, ptr %3, i32 0, i32 0
  %5 = load ptr, ptr %4, align 8, !tbaa !182
  %6 = getelementptr inbounds nuw %struct._zend_op, ptr %5, i32 0, i32 6
  %7 = load i8, ptr %6, align 4, !tbaa !183
  %8 = zext i8 %7 to i32
  %9 = icmp ne i32 %8, 149
  br i1 %9, label %10, label %16

10:                                               ; preds = %1
  %11 = load ptr, ptr %2, align 8, !tbaa !127
  %12 = getelementptr inbounds nuw %struct._zend_execute_data, ptr %11, i32 0, i32 0
  %13 = load ptr, ptr %12, align 8, !tbaa !182
  store ptr %13, ptr getelementptr inbounds nuw (%struct._zend_executor_globals, ptr @executor_globals, i32 0, i32 56), align 8, !tbaa !184
  %14 = load ptr, ptr %2, align 8, !tbaa !127
  %15 = getelementptr inbounds nuw %struct._zend_execute_data, ptr %14, i32 0, i32 0
  store ptr getelementptr inbounds nuw (%struct._zend_executor_globals, ptr @executor_globals, i32 0, i32 57), ptr %15, align 8, !tbaa !182
  br label %16

16:                                               ; preds = %10, %1
  ret void
}

; Function Attrs: alwaysinline nounwind uwtable
define internal void @zend_fiber_resume_internal(ptr dead_on_unwind noalias writable sret(%struct._zend_fiber_transfer) align 8 %0, ptr noundef %1, ptr noundef %2, i1 noundef zeroext %3) #6 {
  %5 = alloca ptr, align 8
  %6 = alloca ptr, align 8
  %7 = alloca i8, align 1
  %8 = alloca ptr, align 8
  store ptr %1, ptr %5, align 8, !tbaa !93
  store ptr %2, ptr %6, align 8, !tbaa !94
  %9 = zext i1 %3 to i8
  store i8 %9, ptr %7, align 1, !tbaa !124
  call void @llvm.lifetime.start.p0(i64 8, ptr %8) #18
  %10 = load ptr, ptr getelementptr inbounds nuw (%struct._zend_executor_globals, ptr @executor_globals, i32 0, i32 74), align 8, !tbaa !87
  store ptr %10, ptr %8, align 8, !tbaa !93
  %11 = load ptr, ptr %8, align 8, !tbaa !93
  %12 = icmp ne ptr %11, null
  br i1 %12, label %13, label %17

13:                                               ; preds = %4
  %14 = load ptr, ptr getelementptr inbounds nuw (%struct._zend_executor_globals, ptr @executor_globals, i32 0, i32 19), align 8, !tbaa !79
  %15 = load ptr, ptr %8, align 8, !tbaa !93
  %16 = getelementptr inbounds nuw %struct._zend_fiber, ptr %15, i32 0, i32 7
  store ptr %14, ptr %16, align 8, !tbaa !111
  br label %17

17:                                               ; preds = %13, %4
  %18 = load ptr, ptr getelementptr inbounds nuw (%struct._zend_executor_globals, ptr @executor_globals, i32 0, i32 73), align 8, !tbaa !65
  %19 = load ptr, ptr %5, align 8, !tbaa !93
  %20 = getelementptr inbounds nuw %struct._zend_fiber, ptr %19, i32 0, i32 3
  store ptr %18, ptr %20, align 8, !tbaa !123
  %21 = load ptr, ptr %5, align 8, !tbaa !93
  store ptr %21, ptr getelementptr inbounds nuw (%struct._zend_executor_globals, ptr @executor_globals, i32 0, i32 74), align 8, !tbaa !87
  %22 = load ptr, ptr %5, align 8, !tbaa !93
  %23 = getelementptr inbounds nuw %struct._zend_fiber, ptr %22, i32 0, i32 4
  %24 = load ptr, ptr %23, align 8, !tbaa !104
  %25 = load ptr, ptr %6, align 8, !tbaa !94
  %26 = load i8, ptr %7, align 1, !tbaa !124, !range !125, !noundef !126
  %27 = trunc i8 %26 to i1
  call void @zend_fiber_switch_to(ptr dead_on_unwind writable sret(%struct._zend_fiber_transfer) align 8 %0, ptr noundef %24, ptr noundef %25, i1 noundef zeroext %27)
  %28 = load ptr, ptr %8, align 8, !tbaa !93
  store ptr %28, ptr getelementptr inbounds nuw (%struct._zend_executor_globals, ptr @executor_globals, i32 0, i32 74), align 8, !tbaa !87
  call void @llvm.lifetime.end.p0(i64 8, ptr %8) #18
  ret void
}

; Function Attrs: nounwind uwtable
define internal void @zend_fiber_object_destroy(ptr noundef %0) #0 {
  %2 = alloca ptr, align 8
  %3 = alloca ptr, align 8
  %4 = alloca i32, align 4
  %5 = alloca ptr, align 8
  %6 = alloca %struct._zval_struct, align 8
  %7 = alloca ptr, align 8
  %8 = alloca %struct._zend_fiber_transfer, align 8
  store ptr %0, ptr %2, align 8, !tbaa !120
  call void @llvm.lifetime.start.p0(i64 8, ptr %3) #18
  %9 = load ptr, ptr %2, align 8, !tbaa !120
  store ptr %9, ptr %3, align 8, !tbaa !93
  %10 = load ptr, ptr %3, align 8, !tbaa !93
  %11 = getelementptr inbounds nuw %struct._zend_fiber, ptr %10, i32 0, i32 2
  %12 = getelementptr inbounds nuw %struct._zend_fiber_context, ptr %11, i32 0, i32 5
  %13 = load i32, ptr %12, align 8, !tbaa !95
  %14 = icmp ne i32 %13, 2
  br i1 %14, label %15, label %16

15:                                               ; preds = %1
  store i32 1, ptr %4, align 4
  br label %75

16:                                               ; preds = %1
  call void @llvm.lifetime.start.p0(i64 8, ptr %5) #18
  %17 = load ptr, ptr getelementptr inbounds nuw (%struct._zend_executor_globals, ptr @executor_globals, i32 0, i32 54), align 8, !tbaa !118
  store ptr %17, ptr %5, align 8, !tbaa !120
  store ptr null, ptr getelementptr inbounds nuw (%struct._zend_executor_globals, ptr @executor_globals, i32 0, i32 54), align 8, !tbaa !118
  call void @llvm.lifetime.start.p0(i64 16, ptr %6) #18
  br label %18

18:                                               ; preds = %16
  call void @llvm.lifetime.start.p0(i64 8, ptr %7) #18
  store ptr %6, ptr %7, align 8, !tbaa !94
  %19 = call ptr @zend_create_graceful_exit()
  %20 = load ptr, ptr %7, align 8, !tbaa !94
  %21 = getelementptr inbounds nuw %struct._zval_struct, ptr %20, i32 0, i32 0
  store ptr %19, ptr %21, align 8, !tbaa !61
  %22 = load ptr, ptr %7, align 8, !tbaa !94
  %23 = getelementptr inbounds nuw %struct._zval_struct, ptr %22, i32 0, i32 1
  store i32 776, ptr %23, align 8, !tbaa !61
  call void @llvm.lifetime.end.p0(i64 8, ptr %7) #18
  br label %24

24:                                               ; preds = %18
  br label %25

25:                                               ; preds = %24
  %26 = load ptr, ptr %3, align 8, !tbaa !93
  %27 = getelementptr inbounds nuw %struct._zend_fiber, ptr %26, i32 0, i32 1
  %28 = load i8, ptr %27, align 8, !tbaa !119
  %29 = zext i8 %28 to i32
  %30 = or i32 %29, 4
  %31 = trunc i32 %30 to i8
  store i8 %31, ptr %27, align 8, !tbaa !119
  call void @llvm.lifetime.start.p0(i64 32, ptr %8) #18
  %32 = load ptr, ptr %3, align 8, !tbaa !93
  call void @zend_fiber_resume_internal(ptr dead_on_unwind writable sret(%struct._zend_fiber_transfer) align 8 %8, ptr noundef %32, ptr noundef %6, i1 noundef zeroext true)
  call void @zval_ptr_dtor(ptr noundef %6)
  %33 = getelementptr inbounds nuw %struct._zend_fiber_transfer, ptr %8, i32 0, i32 2
  %34 = load i8, ptr %33, align 8, !tbaa !105
  %35 = zext i8 %34 to i32
  %36 = and i32 %35, 1
  %37 = icmp ne i32 %36, 0
  br i1 %37, label %38, label %71

38:                                               ; preds = %25
  %39 = getelementptr inbounds nuw %struct._zend_fiber_transfer, ptr %8, i32 0, i32 1
  %40 = getelementptr inbounds nuw %struct._zval_struct, ptr %39, i32 0, i32 0
  %41 = load ptr, ptr %40, align 8, !tbaa !61
  store ptr %41, ptr getelementptr inbounds nuw (%struct._zend_executor_globals, ptr @executor_globals, i32 0, i32 54), align 8, !tbaa !118
  %42 = load ptr, ptr %5, align 8, !tbaa !120
  %43 = icmp ne ptr %42, null
  br i1 %43, label %62, label %44

44:                                               ; preds = %38
  %45 = load ptr, ptr getelementptr inbounds nuw (%struct._zend_executor_globals, ptr @executor_globals, i32 0, i32 19), align 8, !tbaa !79
  %46 = icmp ne ptr %45, null
  br i1 %46, label %47, label %62

47:                                               ; preds = %44
  %48 = load ptr, ptr getelementptr inbounds nuw (%struct._zend_executor_globals, ptr @executor_globals, i32 0, i32 19), align 8, !tbaa !79
  %49 = getelementptr inbounds nuw %struct._zend_execute_data, ptr %48, i32 0, i32 3
  %50 = load ptr, ptr %49, align 8, !tbaa !113
  %51 = icmp ne ptr %50, null
  br i1 %51, label %52, label %62

52:                                               ; preds = %47
  %53 = load ptr, ptr getelementptr inbounds nuw (%struct._zend_executor_globals, ptr @executor_globals, i32 0, i32 19), align 8, !tbaa !79
  %54 = getelementptr inbounds nuw %struct._zend_execute_data, ptr %53, i32 0, i32 3
  %55 = load ptr, ptr %54, align 8, !tbaa !113
  %56 = getelementptr inbounds nuw %struct.anon.7, ptr %55, i32 0, i32 0
  %57 = load i8, ptr %56, align 8, !tbaa !61
  %58 = zext i8 %57 to i32
  %59 = icmp ne i32 %58, 1
  br i1 %59, label %60, label %62

60:                                               ; preds = %52
  %61 = load ptr, ptr getelementptr inbounds nuw (%struct._zend_executor_globals, ptr @executor_globals, i32 0, i32 19), align 8, !tbaa !79
  call void @zend_rethrow_exception(ptr noundef %61)
  br label %62

62:                                               ; preds = %60, %52, %47, %44, %38
  %63 = load ptr, ptr getelementptr inbounds nuw (%struct._zend_executor_globals, ptr @executor_globals, i32 0, i32 54), align 8, !tbaa !118
  %64 = load ptr, ptr %5, align 8, !tbaa !120
  call void @zend_exception_set_previous(ptr noundef %63, ptr noundef %64)
  %65 = load ptr, ptr getelementptr inbounds nuw (%struct._zend_executor_globals, ptr @executor_globals, i32 0, i32 19), align 8, !tbaa !79
  %66 = icmp ne ptr %65, null
  br i1 %66, label %70, label %67

67:                                               ; preds = %62
  %68 = load ptr, ptr getelementptr inbounds nuw (%struct._zend_executor_globals, ptr @executor_globals, i32 0, i32 54), align 8, !tbaa !118
  %69 = call i32 @zend_exception_error(ptr noundef %68, i32 noundef 1)
  br label %70

70:                                               ; preds = %67, %62
  br label %74

71:                                               ; preds = %25
  %72 = getelementptr inbounds nuw %struct._zend_fiber_transfer, ptr %8, i32 0, i32 1
  call void @zval_ptr_dtor(ptr noundef %72)
  %73 = load ptr, ptr %5, align 8, !tbaa !120
  store ptr %73, ptr getelementptr inbounds nuw (%struct._zend_executor_globals, ptr @executor_globals, i32 0, i32 54), align 8, !tbaa !118
  br label %74

74:                                               ; preds = %71, %70
  call void @llvm.lifetime.end.p0(i64 32, ptr %8) #18
  call void @llvm.lifetime.end.p0(i64 16, ptr %6) #18
  call void @llvm.lifetime.end.p0(i64 8, ptr %5) #18
  store i32 0, ptr %4, align 4
  br label %75

75:                                               ; preds = %74, %15
  call void @llvm.lifetime.end.p0(i64 8, ptr %3) #18
  %76 = load i32, ptr %4, align 4
  switch i32 %76, label %78 [
    i32 0, label %77
    i32 1, label %77
  ]

77:                                               ; preds = %75, %75
  ret void

78:                                               ; preds = %75
  unreachable
}