; Function Attrs: nounwind uwtable
define internal void @zend_fiber_object_destroy(ptr noundef %0) #7 {
  %2 = alloca %struct._zval_struct, align 8
  %3 = alloca %struct._zend_fiber_transfer, align 8
  %4 = getelementptr inbounds nuw i8, ptr %0, i64 104
  %5 = load i32, ptr %4, align 8, !tbaa !74
  %.not = icmp eq i32 %5, 2
  br i1 %.not, label %6, label %55

6:                                                ; preds = %1
  %7 = load ptr, ptr getelementptr inbounds nuw (i8, ptr @executor_globals, i64 960), align 8, !tbaa !93
  store ptr null, ptr getelementptr inbounds nuw (i8, ptr @executor_globals, i64 960), align 8, !tbaa !93
  call void @llvm.lifetime.start.p0(i64 16, ptr nonnull %2) #22
  %8 = tail call ptr @zend_create_graceful_exit() #22
  store ptr %8, ptr %2, align 8, !tbaa !56
  %9 = getelementptr inbounds nuw i8, ptr %2, i64 8
  store i32 776, ptr %9, align 8, !tbaa !56
  %10 = getelementptr inbounds nuw i8, ptr %0, i64 56
  %11 = load i8, ptr %10, align 8, !tbaa !104
  %12 = or i8 %11, 4
  store i8 %12, ptr %10, align 8, !tbaa !104
  call void @llvm.lifetime.start.p0(i64 32, ptr nonnull %3) #22
  %13 = load ptr, ptr getelementptr inbounds nuw (i8, ptr @executor_globals, i64 1776), align 8, !tbaa !70, !noalias !184
  %.not.i = icmp eq ptr %13, null
  br i1 %.not.i, label %17, label %14

14:                                               ; preds = %6
  %15 = load ptr, ptr getelementptr inbounds nuw (i8, ptr @executor_globals, i64 512), align 8, !tbaa !66, !noalias !184
  %16 = getelementptr inbounds nuw i8, ptr %13, i64 288
  store ptr %15, ptr %16, align 8, !tbaa !87, !noalias !184
  br label %17

17:                                               ; preds = %6, %14
  %18 = load ptr, ptr getelementptr inbounds nuw (i8, ptr @executor_globals, i64 1768), align 8, !tbaa !60, !noalias !184
  %19 = getelementptr inbounds nuw i8, ptr %0, i64 168
  store ptr %18, ptr %19, align 8, !tbaa !88, !noalias !184
  store ptr %0, ptr getelementptr inbounds nuw (i8, ptr @executor_globals, i64 1776), align 8, !tbaa !70, !noalias !184
  %20 = getelementptr inbounds nuw i8, ptr %0, i64 176
  %21 = load ptr, ptr %20, align 8, !tbaa !83, !noalias !184
  tail call void @llvm.experimental.noalias.scope.decl(metadata !187)
  store ptr %21, ptr %3, align 8, !tbaa !57, !alias.scope !187
  %22 = getelementptr inbounds nuw i8, ptr %3, i64 8
  %23 = getelementptr inbounds nuw i8, ptr %3, i64 16
  store i64 0, ptr %23, align 8
  %24 = getelementptr inbounds nuw i8, ptr %3, i64 24
  store i8 1, ptr %24, align 8, !tbaa !92, !alias.scope !187
  %25 = getelementptr inbounds nuw i8, ptr %3, i64 25
  call void @llvm.memset.p0.i64(ptr noundef nonnull align 1 dereferenceable(7) %25, i8 0, i64 7, i1 false), !alias.scope !187
  store ptr %8, ptr %22, align 8, !tbaa !56, !alias.scope !187
  %26 = getelementptr inbounds nuw i8, ptr %3, i64 16
  store i32 776, ptr %26, align 8, !tbaa !56, !alias.scope !187
  %27 = load i32, ptr %8, align 4, !tbaa !105, !noalias !187
  %28 = add i32 %27, 1
  store i32 %28, ptr %8, align 4, !tbaa !105, !noalias !187
  call void @zend_fiber_switch_context(ptr noundef nonnull align 8 %3)
  %29 = load i8, ptr %24, align 8, !tbaa !92, !alias.scope !187
  %30 = and i8 %29, 2
  %.not12.i = icmp eq i8 %30, 0
  br i1 %.not12.i, label %zend_fiber_switch_to.exit, label %31, !prof !73

31:                                               ; preds = %17
  store ptr null, ptr getelementptr inbounds nuw (i8, ptr @executor_globals, i64 1776), align 8, !tbaa !70, !noalias !187
  call void @_zend_bailout(ptr noundef nonnull @.str.25, i32 noundef 669) #24
  unreachable

zend_fiber_switch_to.exit:                        ; preds = %17
  store ptr %13, ptr getelementptr inbounds nuw (i8, ptr @executor_globals, i64 1776), align 8, !tbaa !70, !noalias !184
  call void @zval_ptr_dtor(ptr noundef nonnull %2) #22
  %32 = load i8, ptr %24, align 8, !tbaa !92
  %33 = and i8 %32, 1
  %.not11 = icmp eq i8 %33, 0
  br i1 %.not11, label %53, label %34

34:                                               ; preds = %zend_fiber_switch_to.exit
  %35 = load ptr, ptr %22, align 8, !tbaa !56
  store ptr %35, ptr getelementptr inbounds nuw (i8, ptr @executor_globals, i64 960), align 8, !tbaa !93
  %36 = icmp eq ptr %7, null
  %37 = load ptr, ptr getelementptr inbounds nuw (i8, ptr @executor_globals, i64 512), align 8
  %38 = icmp ne ptr %37, null
  %or.cond = select i1 %36, i1 %38, i1 false
  br i1 %or.cond, label %39, label %zend_rethrow_exception.exit

39:                                               ; preds = %34
  %40 = getelementptr inbounds nuw i8, ptr %37, i64 24
  %41 = load ptr, ptr %40, align 8, !tbaa !99
  %.not12 = icmp eq ptr %41, null
  br i1 %.not12, label %zend_rethrow_exception.exit, label %42

42:                                               ; preds = %39
  %43 = load i8, ptr %41, align 8, !tbaa !56
  %.not13 = icmp eq i8 %43, 1
  br i1 %.not13, label %zend_rethrow_exception.exit, label %44

44:                                               ; preds = %42
  %45 = load ptr, ptr %37, align 8, !tbaa !190
  %46 = getelementptr inbounds nuw i8, ptr %45, i64 28
  %47 = load i8, ptr %46, align 4, !tbaa !191
  %.not.i16 = icmp eq i8 %47, -107
  br i1 %.not.i16, label %zend_rethrow_exception.exit, label %48

48:                                               ; preds = %44
  store ptr %45, ptr getelementptr inbounds nuw (i8, ptr @executor_globals, i64 976), align 8, !tbaa !192
  store ptr getelementptr inbounds nuw (i8, ptr @executor_globals, i64 984), ptr %37, align 8, !tbaa !190
  br label %zend_rethrow_exception.exit

zend_rethrow_exception.exit:                      ; preds = %48, %44, %42, %39, %34
  call void @zend_exception_set_previous(ptr noundef %35, ptr noundef %7) #22
  %49 = load ptr, ptr getelementptr inbounds nuw (i8, ptr @executor_globals, i64 512), align 8, !tbaa !66
  %.not14 = icmp eq ptr %49, null
  br i1 %.not14, label %50, label %54

50:                                               ; preds = %zend_rethrow_exception.exit
  %51 = load ptr, ptr getelementptr inbounds nuw (i8, ptr @executor_globals, i64 960), align 8, !tbaa !93
  %52 = call i32 @zend_exception_error(ptr noundef %51, i32 noundef 1) #22
  br label %54

53:                                               ; preds = %zend_fiber_switch_to.exit
  call void @zval_ptr_dtor(ptr noundef nonnull %22) #22
  store ptr %7, ptr getelementptr inbounds nuw (i8, ptr @executor_globals, i64 960), align 8, !tbaa !93
  br label %54

54:                                               ; preds = %zend_rethrow_exception.exit, %50, %53
  call void @llvm.lifetime.end.p0(i64 32, ptr nonnull %3) #22
  call void @llvm.lifetime.end.p0(i64 16, ptr nonnull %2) #22
  br label %55

55:                                               ; preds = %1, %54
  ret void
}